target datalayout = "e-m:e-p270:32:32-p271:32:32-p272:64:64-i64:64-i128:128-f80:128-n8:16:32:64-S128"
target triple = "x86_64-pc-linux-gnu"

%struct.backup_manifest_info = type { ptr, i32, ptr, i64, i8, i8, i8 }
%struct.bbsink = type { ptr, ptr, i64, ptr, ptr }
%struct.bbsink_ops = type { ptr, ptr, ptr, ptr, ptr, ptr, ptr, ptr, ptr }

@.str.1 = private unnamed_addr constant [18 x i8] c"backup_manifest.c\00", align 1
@.str.23 = private unnamed_addr constant [51 x i8] c"failed to finalize checksum of backup manifest: %s\00", align 1
@__func__.SendBackupManifest = private unnamed_addr constant [19 x i8] c"SendBackupManifest\00", align 1
@.str.24 = private unnamed_addr constant [23 x i8] c"\22Manifest-Checksum\22: \22\00", align 1
@.str.25 = private unnamed_addr constant [4 x i8] c"\22}\0A\00", align 1
@.str.26 = private unnamed_addr constant [32 x i8] c"could not rewind temporary file\00", align 1

; Function Attrs: inlinehint nounwind uwtable
define internal void @bbsink_end_manifest(ptr noundef %0) #5 {
  %2 = alloca ptr, align 8
  store ptr %0, ptr %2, align 8
  %3 = load ptr, ptr %2, align 8
  %4 = getelementptr inbounds nuw %struct.bbsink, ptr %3, i32 0, i32 0
  %5 = load ptr, ptr %4, align 8
  %6 = getelementptr inbounds nuw %struct.bbsink_ops, ptr %5, i32 0, i32 6
  %7 = load ptr, ptr %6, align 8
  %8 = load ptr, ptr %2, align 8
  call void %7(ptr noundef %8)
  ret void
}

; Function Attrs: inlinehint nounwind uwtable
define internal void @bbsink_manifest_contents(ptr noundef %0, i64 noundef %1) #5 {
  %3 = alloca ptr, align 8
  %4 = alloca i64, align 8
  store ptr %0, ptr %3, align 8
  store i64 %1, ptr %4, align 8
  %5 = load ptr, ptr %3, align 8
  %6 = getelementptr inbounds nuw %struct.bbsink, ptr %5, i32 0, i32 0
  %7 = load ptr, ptr %6, align 8
  %8 = getelementptr inbounds nuw %struct.bbsink_ops, ptr %7, i32 0, i32 5
  %9 = load ptr, ptr %8, align 8
  %10 = load ptr, ptr %3, align 8
  %11 = load i64, ptr %4, align 8
  call void %9(ptr noundef %10, i64 noundef %11)
  ret void
}

; Function Attrs: inlinehint nounwind uwtable
define internal void @bbsink_begin_manifest(ptr noundef %0) #5 {
  %2 = alloca ptr, align 8
  store ptr %0, ptr %2, align 8
  %3 = load ptr, ptr %2, align 8
  %4 = getelementptr inbounds nuw %struct.bbsink, ptr %3, i32 0, i32 0
  %5 = load ptr, ptr %4, align 8
  %6 = getelementptr inbounds nuw %struct.bbsink_ops, ptr %5, i32 0, i32 4
  %7 = load ptr, ptr %6, align 8
  %8 = load ptr, ptr %2, align 8
  call void %7(ptr noundef %8)
  ret void
}

; Function Attrs: inlinehint nounwind uwtable
define internal zeroext i1 @IsManifestEnabled(ptr noundef %0) #5 {
  %2 = alloca ptr, align 8
  store ptr %0, ptr %2, align 8
  %3 = load ptr, ptr %2, align 8
  %4 = getelementptr inbounds nuw %struct.backup_manifest_info, ptr %3, i32 0, i32 0
  %5 = load ptr, ptr %4, align 8
  %6 = icmp ne ptr %5, null
  ret i1 %6
}

; Function Attrs: nounwind uwtable
define dso_local void @SendBackupManifest(ptr noundef %0, ptr noundef %1) #0 {
  %3 = alloca ptr, align 8
  %4 = alloca ptr, align 8
  %5 = alloca [32 x i8], align 16
  %6 = alloca [65 x i8], align 16
  %7 = alloca i64, align 8
  %8 = alloca i32, align 4
  %9 = alloca i64, align 8
  store ptr %0, ptr %3, align 8
  store ptr %1, ptr %4, align 8
  call void @llvm.lifetime.start.p0(i64 32, ptr %5) #8
  call void @llvm.lifetime.start.p0(i64 65, ptr %6) #8
  call void @llvm.lifetime.start.p0(i64 8, ptr %7) #8
  store i64 0, ptr %7, align 8
  %10 = load ptr, ptr %3, align 8
  %11 = call zeroext i1 @IsManifestEnabled(ptr noundef %10)
  br i1 %11, label %13, label %12

12:                                               ; preds = %2
  store i32 1, ptr %8, align 4
  br label %110

13:                                               ; preds = %2
  %14 = load ptr, ptr %3, align 8
  %15 = getelementptr inbounds nuw %struct.backup_manifest_info, ptr %14, i32 0, i32 6
  store i8 0, ptr %15, align 2
  %16 = load ptr, ptr %3, align 8
  %17 = getelementptr inbounds nuw %struct.backup_manifest_info, ptr %16, i32 0, i32 2
  %18 = load ptr, ptr %17, align 8
  %19 = getelementptr inbounds [32 x i8], ptr %5, i64 0, i64 0
  %20 = call i32 @pg_cryptohash_final(ptr noundef %18, ptr noundef %19, i64 noundef 32)
  %21 = icmp slt i32 %20, 0
  br i1 %21, label %22, label %37

22:                                               ; preds = %13
  br label %23

23:                                               ; preds = %22
  br i1 true, label %24, label %26

24:                                               ; preds = %23
  %25 = call zeroext i1 @errstart_cold(i32 noundef 21, ptr noundef null) #7
  br i1 %25, label %28, label %34

26:                                               ; preds = %23
  %27 = call zeroext i1 @errstart(i32 noundef 21, ptr noundef null)
  br i1 %27, label %28, label %34

28:                                               ; preds = %26, %24
  %29 = load ptr, ptr %3, align 8
  %30 = getelementptr inbounds nuw %struct.backup_manifest_info, ptr %29, i32 0, i32 2
  %31 = load ptr, ptr %30, align 8
  %32 = call ptr @pg_cryptohash_error(ptr noundef %31)
  %33 = call i32 (ptr, ...) @errmsg_internal(ptr noundef @.str.23, ptr noundef %32)
  call void @errfinish(ptr noundef @.str.1, i32 noundef 341, ptr noundef @__func__.SendBackupManifest)
  br label %34

34:                                               ; preds = %28, %26, %24
  unreachable

35:                                               ; No predecessors!
  br label %36

36:                                               ; preds = %35
  br label %37

37:                                               ; preds = %36, %13
  %38 = load ptr, ptr %3, align 8
  call void @AppendStringToManifest(ptr noundef %38, ptr noundef @.str.24)
  %39 = getelementptr inbounds [32 x i8], ptr %5, i64 0, i64 0
  %40 = getelementptr inbounds [65 x i8], ptr %6, i64 0, i64 0
  %41 = call i64 @hex_encode(ptr noundef %39, i64 noundef 32, ptr noundef %40)
  %42 = getelementptr inbounds [65 x i8], ptr %6, i64 0, i64 64
  store i8 0, ptr %42, align 16
  %43 = load ptr, ptr %3, align 8
  %44 = getelementptr inbounds [65 x i8], ptr %6, i64 0, i64 0
  call void @AppendStringToManifest(ptr noundef %43, ptr noundef %44)
  %45 = load ptr, ptr %3, align 8
  call void @AppendStringToManifest(ptr noundef %45, ptr noundef @.str.25)
  %46 = load ptr, ptr %3, align 8
  %47 = getelementptr inbounds nuw %struct.backup_manifest_info, ptr %46, i32 0, i32 0
  %48 = load ptr, ptr %47, align 8
  %49 = call i32 @BufFileSeek(ptr noundef %48, i32 noundef 0, i64 noundef 0, i32 noundef 0)
  %50 = icmp ne i32 %49, 0
  br i1 %50, label %51, label %63

51:                                               ; preds = %37
  br label %52

52:                                               ; preds = %51
  br i1 true, label %53, label %55

53:                                               ; preds = %52
  %54 = call zeroext i1 @errstart_cold(i32 noundef 21, ptr noundef null) #7
  br i1 %54, label %57, label %60

55:                                               ; preds = %52
  %56 = call zeroext i1 @errstart(i32 noundef 21, ptr noundef null)
  br i1 %56, label %57, label %60

57:                                               ; preds = %55, %53
  %58 = call i32 @errcode_for_file_access()
  %59 = call i32 (ptr, ...) @errmsg(ptr noundef @.str.26)
  call void @errfinish(ptr noundef @.str.1, i32 noundef 357, ptr noundef @__func__.SendBackupManifest)
  br label %60

60:                                               ; preds = %57, %55, %53
  unreachable

61:                                               ; No predecessors!
  br label %62

62:                                               ; preds = %61
  br label %63

63:                                               ; preds = %62, %37
  %64 = load ptr, ptr %4, align 8
  call void @bbsink_begin_manifest(ptr noundef %64)
  br label %65

65:                                               ; preds = %91, %63
  %66 = load i64, ptr %7, align 8
  %67 = load ptr, ptr %3, align 8
  %68 = getelementptr inbounds nuw %struct.backup_manifest_info, ptr %67, i32 0, i32 3
  %69 = load i64, ptr %68, align 8
  %70 = icmp ult i64 %66, %69
  br i1 %70, label %71, label %105

71:                                               ; preds = %65
  call void @llvm.lifetime.start.p0(i64 8, ptr %9) #8
  %72 = load ptr, ptr %4, align 8
  %73 = getelementptr inbounds nuw %struct.bbsink, ptr %72, i32 0, i32 2
  %74 = load i64, ptr %73, align 8
  %75 = load ptr, ptr %3, align 8
  %76 = getelementptr inbounds nuw %struct.backup_manifest_info, ptr %75, i32 0, i32 3
  %77 = load i64, ptr %76, align 8
  %78 = load i64, ptr %7, align 8
  %79 = sub i64 %77, %78
  %80 = icmp ult i64 %74, %79
  br i1 %80, label %81, label %85

81:                                               ; preds = %71
  %82 = load ptr, ptr %4, align 8
  %83 = getelementptr inbounds nuw %struct.bbsink, ptr %82, i32 0, i32 2
  %84 = load i64, ptr %83, align 8
  br label %91

85:                                               ; preds = %71
  %86 = load ptr, ptr %3, align 8
  %87 = getelementptr inbounds nuw %struct.backup_manifest_info, ptr %86, i32 0, i32 3
  %88 = load i64, ptr %87, align 8
  %89 = load i64, ptr %7, align 8
  %90 = sub i64 %88, %89
  br label %91

91:                                               ; preds = %85, %81
  %92 = phi i64 [ %84, %81 ], [ %90, %85 ]
  store i64 %92, ptr %9, align 8
  %93 = load ptr, ptr %3, align 8
  %94 = getelementptr inbounds nuw %struct.backup_manifest_info, ptr %93, i32 0, i32 0
  %95 = load ptr, ptr %94, align 8
  %96 = load ptr, ptr %4, align 8
  %97 = getelementptr inbounds nuw %struct.bbsink, ptr %96, i32 0, i32 1
  %98 = load ptr, ptr %97, align 8
  %99 = load i64, ptr %9, align 8
  call void @BufFileReadExact(ptr noundef %95, ptr noundef %98, i64 noundef %99)
  %100 = load ptr, ptr %4, align 8
  %101 = load i64, ptr %9, align 8
  call void @bbsink_manifest_contents(ptr noundef %100, i64 noundef %101)
  %102 = load i64, ptr %9, align 8
  %103 = load i64, ptr %7, align 8
  %104 = add i64 %103, %102
  store i64 %104, ptr %7, align 8
  call void @llvm.lifetime.end.p0(i64 8, ptr %9) #8
  br label %65, !llvm.loop !8

105:                                              ; preds = %65
  %106 = load ptr, ptr %4, align 8
  call void @bbsink_end_manifest(ptr noundef %106)
  %107 = load ptr, ptr %3, align 8
  %108 = getelementptr inbounds nuw %struct.backup_manifest_info, ptr %107, i32 0, i32 0
  %109 = load ptr, ptr %108, align 8
  call void @BufFileClose(ptr noundef %109)
  store i32 0, ptr %8, align 4
  br label %110

110:                                              ; preds = %105, %12
  call void @llvm.lifetime.end.p0(i64 8, ptr %7) #8
  call void @llvm.lifetime.end.p0(i64 65, ptr %6) #8
  call void @llvm.lifetime.end.p0(i64 32, ptr %5) #8
  %111 = load i32, ptr %8, align 4
  switch i32 %111, label %113 [
    i32 0, label %112
    i32 1, label %112
  ]

112:                                              ; preds = %110, %110
  ret void

113:                                              ; preds = %110
  unreachable
}