; Function Attrs: nounwind uwtable
define dso_local void @SendBackupManifest(ptr noundef captures(none) %0, ptr noundef %1) local_unnamed_addr #0 {
  %3 = alloca [32 x i8], align 16
  %4 = alloca [65 x i8], align 16
  call void @llvm.lifetime.start.p0(i64 32, ptr nonnull %3) #8
  call void @llvm.lifetime.start.p0(i64 65, ptr nonnull %4) #8
  %.val = load ptr, ptr %0, align 8
  %.not28 = icmp eq ptr %.val, null
  br i1 %.not28, label %49, label %5

5:                                                ; preds = %2
  %6 = getelementptr inbounds nuw i8, ptr %0, i64 34
  store i8 0, ptr %6, align 2
  %7 = getelementptr inbounds nuw i8, ptr %0, i64 16
  %8 = load ptr, ptr %7, align 8
  %9 = call i32 @pg_cryptohash_final(ptr noundef %8, ptr noundef nonnull %3, i64 noundef 32) #8
  %10 = icmp slt i32 %9, 0
  br i1 %10, label %11, label %16

11:                                               ; preds = %5
  %12 = call zeroext i1 @errstart_cold(i32 noundef 21, ptr noundef null) #9
  call void @llvm.assume(i1 %12)
  %13 = load ptr, ptr %7, align 8
  %14 = call ptr @pg_cryptohash_error(ptr noundef %13) #8
  %15 = call i32 (ptr, ...) @errmsg_internal(ptr noundef nonnull @.str.23, ptr noundef %14) #8
  call void @errfinish(ptr noundef nonnull @.str.1, i32 noundef 341, ptr noundef nonnull @__func__.SendBackupManifest) #8
  unreachable

16:                                               ; preds = %5
  call fastcc void @AppendStringToManifest(ptr noundef nonnull %0, ptr noundef nonnull @.str.24)
  %17 = call i64 @hex_encode(ptr noundef nonnull %3, i64 noundef 32, ptr noundef nonnull %4) #8
  %18 = getelementptr inbounds nuw i8, ptr %4, i64 64
  store i8 0, ptr %18, align 16
  call fastcc void @AppendStringToManifest(ptr noundef nonnull %0, ptr noundef nonnull %4)
  call fastcc void @AppendStringToManifest(ptr noundef nonnull %0, ptr noundef nonnull @.str.25)
  %19 = load ptr, ptr %0, align 8
  %20 = call i32 @BufFileSeek(ptr noundef %19, i32 noundef 0, i64 noundef 0, i32 noundef 0) #8
  %.not = icmp eq i32 %20, 0
  br i1 %.not, label %25, label %21

21:                                               ; preds = %16
  %22 = call zeroext i1 @errstart_cold(i32 noundef 21, ptr noundef null) #9
  call void @llvm.assume(i1 %22)
  %23 = call i32 @errcode_for_file_access() #8
  %24 = call i32 (ptr, ...) @errmsg(ptr noundef nonnull @.str.26) #8
  call void @errfinish(ptr noundef nonnull @.str.1, i32 noundef 357, ptr noundef nonnull @__func__.SendBackupManifest) #8
  unreachable

25:                                               ; preds = %16
  %26 = load ptr, ptr %1, align 8
  %27 = getelementptr inbounds nuw i8, ptr %26, i64 32
  %28 = load ptr, ptr %27, align 8
  call void %28(ptr noundef nonnull %1) #8
  %29 = getelementptr inbounds nuw i8, ptr %0, i64 24
  %30 = load i64, ptr %29, align 8
  %.not30 = icmp eq i64 %30, 0
  br i1 %.not30, label %._crit_edge, label %.lr.ph

.lr.ph:                                           ; preds = %25
  %31 = getelementptr inbounds nuw i8, ptr %1, i64 16
  %32 = getelementptr inbounds nuw i8, ptr %1, i64 8
  br label %33

33:                                               ; preds = %.lr.ph, %33
  %34 = phi i64 [ %30, %.lr.ph ], [ %43, %33 ]
  %.029 = phi i64 [ 0, %.lr.ph ], [ %42, %33 ]
  %35 = load i64, ptr %31, align 8
  %36 = sub nuw i64 %34, %.029
  %. = call i64 @llvm.umin.i64(i64 %35, i64 %36)
  %37 = load ptr, ptr %0, align 8
  %38 = load ptr, ptr %32, align 8
  call void @BufFileReadExact(ptr noundef %37, ptr noundef %38, i64 noundef %.) #8
  %39 = load ptr, ptr %1, align 8
  %40 = getelementptr inbounds nuw i8, ptr %39, i64 40
  %41 = load ptr, ptr %40, align 8
  call void %41(ptr noundef nonnull %1, i64 noundef %.) #8
  %42 = add i64 %., %.029
  %43 = load i64, ptr %29, align 8
  %44 = icmp ult i64 %42, %43
  br i1 %44, label %33, label %._crit_edge, !llvm.loop !6

._crit_edge:                                      ; preds = %33, %25
  %45 = load ptr, ptr %1, align 8
  %46 = getelementptr inbounds nuw i8, ptr %45, i64 48
  %47 = load ptr, ptr %46, align 8
  call void %47(ptr noundef nonnull %1) #8
  %48 = load ptr, ptr %0, align 8
  call void @BufFileClose(ptr noundef %48) #8
  br label %49

49:                                               ; preds = %2, %._crit_edge
  call void @llvm.lifetime.end.p0(i64 65, ptr nonnull %4) #8
  call void @llvm.lifetime.end.p0(i64 32, ptr nonnull %3) #8
  ret void
}